; Function Attrs: nounwind uwtable
define internal noundef i32 @pop3_done(ptr noundef readonly captures(none) %0, i32 noundef %1, i1 zeroext %2) #0 {
  %4 = getelementptr inbounds nuw i8, ptr %0, i64 440
  %5 = load ptr, ptr %4, align 8, !tbaa !7
  %.not = icmp eq ptr %5, null
  br i1 %.not, label %17, label %6

6:                                                ; preds = %3
  %.not14 = icmp eq i32 %1, 0
  br i1 %.not14, label %10, label %7

7:                                                ; preds = %6
  %8 = getelementptr inbounds nuw i8, ptr %0, i64 24
  %9 = load ptr, ptr %8, align 8, !tbaa !83
  tail call void @Curl_conncontrol(ptr noundef %9, i32 noundef 1) #6
  br label %10

10:                                               ; preds = %6, %7
  %11 = load ptr, ptr @Curl_cfree, align 8, !tbaa !3
  %12 = getelementptr inbounds nuw i8, ptr %5, i64 8
  %13 = load ptr, ptr %12, align 8, !tbaa !84
  tail call void %11(ptr noundef %13) #6
  store ptr null, ptr %12, align 8, !tbaa !84
  %14 = load ptr, ptr @Curl_cfree, align 8, !tbaa !3
  %15 = getelementptr inbounds nuw i8, ptr %5, i64 16
  %16 = load ptr, ptr %15, align 8, !tbaa !85
  tail call void %14(ptr noundef %16) #6
  store ptr null, ptr %15, align 8, !tbaa !85
  store i32 0, ptr %5, align 8, !tbaa !81
  br label %17

17:                                               ; preds = %3, %10
  %.0 = phi i32 [ %1, %10 ], [ 0, %3 ]
  ret i32 %.0
}